target datalayout = "e-m:e-p270:32:32-p271:32:32-p272:64:64-i64:64-i128:128-f80:128-n8:16:32:64-S128"
target triple = "x86_64-pc-linux-gnu"

; Function Attrs: mustprogress uwtable
define noundef i32 @_ZNK6icu_7717RegionValidateMap5valueEPKc(ptr noundef nonnull align 8 dereferenceable(96) %0, ptr noundef %1) #1 align 2 {
  %3 = alloca i32, align 4
  %4 = alloca ptr, align 8
  %5 = alloca ptr, align 8
  store ptr %0, ptr %4, align 8, !tbaa !58
  store ptr %1, ptr %5, align 8, !tbaa !17
  %6 = load ptr, ptr %5, align 8, !tbaa !17
  %7 = getelementptr inbounds i8, ptr %6, i64 0
  %8 = load i8, ptr %7, align 1, !tbaa !47
  %9 = call signext i8 @uprv_isASCIILetter_77(i8 noundef signext %8)
  %10 = icmp ne i8 %9, 0
  br i1 %10, label %11, label %38

11:                                               ; preds = %2
  %12 = load ptr, ptr %5, align 8, !tbaa !17
  %13 = getelementptr inbounds i8, ptr %12, i64 1
  %14 = load i8, ptr %13, align 1, !tbaa !47
  %15 = call signext i8 @uprv_isASCIILetter_77(i8 noundef signext %14)
  %16 = icmp ne i8 %15, 0
  br i1 %16, label %17, label %38

17:                                               ; preds = %11
  %18 = load ptr, ptr %5, align 8, !tbaa !17
  %19 = getelementptr inbounds i8, ptr %18, i64 2
  %20 = load i8, ptr %19, align 1, !tbaa !47
  %21 = sext i8 %20 to i32
  %22 = icmp eq i32 %21, 0
  br i1 %22, label %23, label %38

23:                                               ; preds = %17
  %24 = load ptr, ptr %5, align 8, !tbaa !17
  %25 = getelementptr inbounds i8, ptr %24, i64 0
  %26 = load i8, ptr %25, align 1, !tbaa !47
  %27 = call signext i8 @uprv_toupper_77(i8 noundef signext %26)
  %28 = sext i8 %27 to i32
  %29 = sub nsw i32 %28, 65
  %30 = mul nsw i32 %29, 26
  %31 = load ptr, ptr %5, align 8, !tbaa !17
  %32 = getelementptr inbounds i8, ptr %31, i64 1
  %33 = load i8, ptr %32, align 1, !tbaa !47
  %34 = call signext i8 @uprv_toupper_77(i8 noundef signext %33)
  %35 = sext i8 %34 to i32
  %36 = sub nsw i32 %35, 65
  %37 = add nsw i32 %30, %36
  store i32 %37, ptr %3, align 4
  br label %39

38:                                               ; preds = %17, %11, %2
  store i32 -1, ptr %3, align 4
  br label %39

39:                                               ; preds = %38, %23
  %40 = load i32, ptr %3, align 4
  ret i32 %40
}