; Function Attrs: mustprogress uwtable
define noundef range(i32 -5211, 1675) i32 @_ZNK6icu_7717RegionValidateMap5valueEPKc(ptr noundef nonnull readnone align 8 captures(none) dereferenceable(96) %0, ptr noundef readonly captures(none) %1) local_unnamed_addr #1 align 2 {
  %3 = load i8, ptr %1, align 1, !tbaa !24
  %4 = tail call signext i8 @uprv_isASCIILetter_77(i8 noundef signext %3)
  %.not = icmp eq i8 %4, 0
  br i1 %.not, label %23, label %5

5:                                                ; preds = %2
  %6 = getelementptr inbounds nuw i8, ptr %1, i64 1
  %7 = load i8, ptr %6, align 1, !tbaa !24
  %8 = tail call signext i8 @uprv_isASCIILetter_77(i8 noundef signext %7)
  %.not5 = icmp eq i8 %8, 0
  br i1 %.not5, label %23, label %9

9:                                                ; preds = %5
  %10 = getelementptr inbounds nuw i8, ptr %1, i64 2
  %11 = load i8, ptr %10, align 1, !tbaa !24
  %12 = icmp eq i8 %11, 0
  br i1 %12, label %13, label %23

13:                                               ; preds = %9
  %14 = load i8, ptr %1, align 1, !tbaa !24
  %15 = tail call signext i8 @uprv_toupper_77(i8 noundef signext %14)
  %16 = sext i8 %15 to i32
  %17 = mul nsw i32 %16, 26
  %18 = load i8, ptr %6, align 1, !tbaa !24
  %19 = tail call signext i8 @uprv_toupper_77(i8 noundef signext %18)
  %20 = sext i8 %19 to i32
  %21 = add nsw i32 %17, -1755
  %22 = add nsw i32 %21, %20
  br label %23

23:                                               ; preds = %2, %5, %9, %13
  %.0 = phi i32 [ %22, %13 ], [ -1, %9 ], [ -1, %5 ], [ -1, %2 ]
  ret i32 %.0
}